target datalayout = "e-m:e-p270:32:32-p271:32:32-p272:64:64-i64:64-i128:128-f80:128-n8:16:32:64-S128"
target triple = "x86_64-pc-linux-gnu"

%"class.pbrt::Transform" = type { %"class.pbrt::SquareMatrix.0", %"class.pbrt::SquareMatrix.0" }
%"class.pbrt::SquareMatrix.0" = type { [4 x [4 x float]] }
%"class.pbrt::Vector3" = type { %"class.pbrt::Tuple3" }
%"class.pbrt::Tuple3" = type { float, float, float }
%"class.pbrt::AnimatedTransform" = type { %"class.pbrt::Transform", %"class.pbrt::Transform", float, float, i8, [2 x %"class.pbrt::Vector3"], [2 x %"class.pbrt::Quaternion"], [2 x %"class.pbrt::SquareMatrix.0"], i8, [3 x %"struct.pbrt::AnimatedTransform::DerivativeTerm"], [3 x %"struct.pbrt::AnimatedTransform::DerivativeTerm"], [3 x %"struct.pbrt::AnimatedTransform::DerivativeTerm"], [3 x %"struct.pbrt::AnimatedTransform::DerivativeTerm"], [3 x %"struct.pbrt::AnimatedTransform::DerivativeTerm"] }
%"class.pbrt::Quaternion" = type { %"class.pbrt::Vector3", float }
%"struct.pbrt::AnimatedTransform::DerivativeTerm" = type { float, float, float, float }
%"class.pbrt::CameraTransform" = type { %"class.pbrt::AnimatedTransform", %"class.pbrt::Transform" }
%"class.std::__cxx11::basic_string" = type { %"struct.std::__cxx11::basic_string<char>::_Alloc_hider", i64, %union.anon }
%"struct.std::__cxx11::basic_string<char>::_Alloc_hider" = type { ptr }
%union.anon = type { i64, [8 x i8] }
%"class.pbrt::Point2" = type { %"class.pbrt::Tuple2" }
%"class.pbrt::Tuple2" = type { float, float }
%"class.pbrt::CameraBase" = type { %"class.pbrt::CameraTransform", float, float, %"class.pbrt::Film", %"class.pbrt::Medium", %"class.pbrt::Vector3", %"class.pbrt::Vector3", %"class.pbrt::Vector3", %"class.pbrt::Vector3" }
%"class.pbrt::Film" = type { %"class.pbrt::TaggedPointer.25" }
%"class.pbrt::TaggedPointer.25" = type { i64 }
%"class.pbrt::Medium" = type { %"class.pbrt::TaggedPointer.14" }
%"class.pbrt::TaggedPointer.14" = type { i64 }
%"class.pbrt::Point2.29" = type { %"class.pbrt::Tuple2.30" }
%"class.pbrt::Tuple2.30" = type { i32, i32 }
%"class.pbrt::Bounds2" = type { %"class.pbrt::Point2", %"class.pbrt::Point2" }
%"class.pbrt::Image" = type { i32, %"class.pbrt::Point2.29", %"class.pstd::vector", %"class.pbrt::ColorEncoding", %"class.pstd::vector.54", %"class.pstd::vector.56", %"class.pstd::vector.58" }
%"class.pstd::vector" = type { %"class.pstd::pmr::polymorphic_allocator.52", ptr, i64, i64 }
%"class.pstd::pmr::polymorphic_allocator.52" = type { ptr }
%"class.pbrt::ColorEncoding" = type { %"class.pbrt::TaggedPointer.53" }
%"class.pbrt::TaggedPointer.53" = type { i64 }
%"class.pstd::vector.54" = type { %"class.pstd::pmr::polymorphic_allocator.55", ptr, i64, i64 }
%"class.pstd::pmr::polymorphic_allocator.55" = type { ptr }
%"class.pstd::vector.56" = type { %"class.pstd::pmr::polymorphic_allocator.57", ptr, i64, i64 }
%"class.pstd::pmr::polymorphic_allocator.57" = type { ptr }
%"class.pstd::vector.58" = type { %"class.pstd::pmr::polymorphic_allocator.59", ptr, i64, i64 }
%"class.pstd::pmr::polymorphic_allocator.59" = type { ptr }
%"class.pstd::pmr::polymorphic_allocator.61" = type { ptr }
%"class.pstd::pmr::polymorphic_allocator.63" = type { ptr }
%class.anon.64 = type { ptr, ptr }
%"class.pbrt::RealisticCamera" = type { %"class.pbrt::CameraBase", %"class.pbrt::Bounds2", %"class.pstd::vector.60", %"class.pbrt::Image", %"class.pstd::vector.62" }
%"class.pstd::vector.60" = type { %"class.pstd::pmr::polymorphic_allocator.61", ptr, i64, i64 }
%"class.pstd::vector.62" = type { %"class.pstd::pmr::polymorphic_allocator.63", ptr, i64, i64 }
%class.anon.92 = type { i8 }
%"class.pbrt::FilmBase" = type { %"class.pbrt::Point2.29", %"class.pbrt::Bounds2.84", %"class.pbrt::Filter", float, ptr, %"class.std::__cxx11::basic_string" }
%"class.pbrt::Bounds2.84" = type { %"class.pbrt::Point2.29", %"class.pbrt::Point2.29" }
%"class.pbrt::Filter" = type { %"class.pbrt::TaggedPointer.85" }
%"class.pbrt::TaggedPointer.85" = type { i64 }

; Function Attrs: mustprogress nounwind uwtable
define linkonce_odr dso_local noundef float @_ZNK4pbrt8FilmBase8DiagonalEv(ptr noundef nonnull align 8 dereferenceable(80) %0) #6 comdat align 2 {
  %2 = alloca ptr, align 8
  store ptr %0, ptr %2, align 8, !tbaa !449
  %3 = load ptr, ptr %2, align 8
  %4 = getelementptr inbounds nuw %"class.pbrt::FilmBase", ptr %3, i32 0, i32 3
  %5 = load float, ptr %4, align 8, !tbaa !585
  ret float %5
}

; Function Attrs: inlinehint mustprogress nounwind uwtable
define linkonce_odr dso_local noundef float @_ZZNK4pbrt4Film8DiagonalEvENKUlT_E_clIPKNS_12SpectralFilmEEEDaS1_(ptr noundef nonnull align 1 dereferenceable(1) %0, ptr noundef %1) #12 comdat align 2 {
  %3 = alloca ptr, align 8
  %4 = alloca ptr, align 8
  store ptr %0, ptr %3, align 8, !tbaa !57
  store ptr %1, ptr %4, align 8, !tbaa !447
  %5 = load ptr, ptr %4, align 8, !tbaa !447
  %6 = call noundef float @_ZNK4pbrt8FilmBase8DiagonalEv(ptr noundef nonnull align 8 dereferenceable(80) %5)
  ret float %6
}

; Function Attrs: inlinehint mustprogress nounwind uwtable
define linkonce_odr dso_local noundef float @_ZZNK4pbrt4Film8DiagonalEvENKUlT_E_clIPKNS_11GBufferFilmEEEDaS1_(ptr noundef nonnull align 1 dereferenceable(1) %0, ptr noundef %1) #12 comdat align 2 {
  %3 = alloca ptr, align 8
  %4 = alloca ptr, align 8
  store ptr %0, ptr %3, align 8, !tbaa !57
  store ptr %1, ptr %4, align 8, !tbaa !445
  %5 = load ptr, ptr %4, align 8, !tbaa !445
  %6 = call noundef float @_ZNK4pbrt8FilmBase8DiagonalEv(ptr noundef nonnull align 8 dereferenceable(80) %5)
  ret float %6
}

; Function Attrs: inlinehint mustprogress uwtable
define linkonce_odr dso_local noundef float @_ZZNK4pbrt4Film8DiagonalEvENKUlT_E_clIPKNS_7RGBFilmEEEDaS1_(ptr noundef nonnull align 1 dereferenceable(1) %0, ptr noundef %1) #10 comdat align 2 {
  %3 = alloca ptr, align 8
  %4 = alloca ptr, align 8
  store ptr %0, ptr %3, align 8, !tbaa !57
  store ptr %1, ptr %4, align 8, !tbaa !443
  %5 = load ptr, ptr %4, align 8, !tbaa !443
  %6 = call noundef float @_ZNK4pbrt8FilmBase8DiagonalEv(ptr noundef nonnull align 8 dereferenceable(80) %5)
  ret float %6
}

; Function Attrs: mustprogress uwtable
define linkonce_odr dso_local noundef float @_ZN4pbrt6detail8DispatchIRZNKS_4Film8DiagonalEvEUlT_E_fNS_7RGBFilmENS_11GBufferFilmENS_12SpectralFilmEEET0_OS3_PKvi(ptr noundef nonnull align 1 dereferenceable(1) %0, ptr noundef %1, i32 noundef %2) #1 comdat {
  %4 = alloca float, align 4
  %5 = alloca ptr, align 8
  %6 = alloca ptr, align 8
  %7 = alloca i32, align 4
  store ptr %0, ptr %5, align 8, !tbaa !57
  store ptr %1, ptr %6, align 8, !tbaa !57
  store i32 %2, ptr %7, align 4, !tbaa !48
  br label %8

8:                                                ; preds = %3
  br label %9

9:                                                ; preds = %8
  br label %10

10:                                               ; preds = %9
  br label %11

11:                                               ; preds = %10
  %12 = load i32, ptr %7, align 4, !tbaa !48
  switch i32 %12, label %21 [
    i32 0, label %13
    i32 1, label %17
  ]

13:                                               ; preds = %11
  %14 = load ptr, ptr %5, align 8, !tbaa !57
  %15 = load ptr, ptr %6, align 8, !tbaa !57
  %16 = call noundef float @_ZZNK4pbrt4Film8DiagonalEvENKUlT_E_clIPKNS_7RGBFilmEEEDaS1_(ptr noundef nonnull align 1 dereferenceable(1) %14, ptr noundef %15)
  store float %16, ptr %4, align 4
  br label %25

17:                                               ; preds = %11
  %18 = load ptr, ptr %5, align 8, !tbaa !57
  %19 = load ptr, ptr %6, align 8, !tbaa !57
  %20 = call noundef float @_ZZNK4pbrt4Film8DiagonalEvENKUlT_E_clIPKNS_11GBufferFilmEEEDaS1_(ptr noundef nonnull align 1 dereferenceable(1) %18, ptr noundef %19)
  store float %20, ptr %4, align 4
  br label %25

21:                                               ; preds = %11
  %22 = load ptr, ptr %5, align 8, !tbaa !57
  %23 = load ptr, ptr %6, align 8, !tbaa !57
  %24 = call noundef float @_ZZNK4pbrt4Film8DiagonalEvENKUlT_E_clIPKNS_12SpectralFilmEEEDaS1_(ptr noundef nonnull align 1 dereferenceable(1) %22, ptr noundef %23)
  store float %24, ptr %4, align 4
  br label %25

25:                                               ; preds = %21, %17, %13
  %26 = load float, ptr %4, align 4
  ret float %26
}

; Function Attrs: mustprogress nounwind uwtable
define linkonce_odr dso_local noundef i32 @_ZNK4pbrt13TaggedPointerIJNS_7RGBFilmENS_11GBufferFilmENS_12SpectralFilmEEE3TagEv(ptr noundef nonnull align 8 dereferenceable(8) %0) #6 comdat align 2 {
  %2 = alloca ptr, align 8
  store ptr %0, ptr %2, align 8, !tbaa !429
  %3 = load ptr, ptr %2, align 8
  %4 = getelementptr inbounds nuw %"class.pbrt::TaggedPointer.25", ptr %3, i32 0, i32 0
  %5 = load i64, ptr %4, align 8, !tbaa !431
  %6 = and i64 %5, -144115188075855872
  %7 = lshr i64 %6, 57
  %8 = trunc i64 %7 to i32
  ret i32 %8
}

; Function Attrs: mustprogress nounwind uwtable
define linkonce_odr dso_local noundef ptr @_ZNK4pbrt13TaggedPointerIJNS_7RGBFilmENS_11GBufferFilmENS_12SpectralFilmEEE3ptrEv(ptr noundef nonnull align 8 dereferenceable(8) %0) #6 comdat align 2 {
  %2 = alloca ptr, align 8
  store ptr %0, ptr %2, align 8, !tbaa !429
  %3 = load ptr, ptr %2, align 8
  %4 = getelementptr inbounds nuw %"class.pbrt::TaggedPointer.25", ptr %3, i32 0, i32 0
  %5 = load i64, ptr %4, align 8, !tbaa !431
  %6 = and i64 %5, 144115188075855871
  %7 = inttoptr i64 %6 to ptr
  ret ptr %7
}

; Function Attrs: mustprogress uwtable
define linkonce_odr dso_local noundef float @_ZNK4pbrt13TaggedPointerIJNS_7RGBFilmENS_11GBufferFilmENS_12SpectralFilmEEE8DispatchIRZNKS_4Film8DiagonalEvEUlT_E_EEDcOS7_(ptr noundef nonnull align 8 dereferenceable(8) %0, ptr noundef nonnull align 1 dereferenceable(1) %1) #1 comdat align 2 {
  %3 = alloca ptr, align 8
  %4 = alloca ptr, align 8
  store ptr %0, ptr %3, align 8, !tbaa !429
  store ptr %1, ptr %4, align 8, !tbaa !57
  %5 = load ptr, ptr %3, align 8
  br label %6

6:                                                ; preds = %2
  br label %7

7:                                                ; preds = %6
  %8 = load ptr, ptr %4, align 8, !tbaa !57
  %9 = call noundef ptr @_ZNK4pbrt13TaggedPointerIJNS_7RGBFilmENS_11GBufferFilmENS_12SpectralFilmEEE3ptrEv(ptr noundef nonnull align 8 dereferenceable(8) %5)
  %10 = call noundef i32 @_ZNK4pbrt13TaggedPointerIJNS_7RGBFilmENS_11GBufferFilmENS_12SpectralFilmEEE3TagEv(ptr noundef nonnull align 8 dereferenceable(8) %5)
  %11 = sub i32 %10, 1
  %12 = call noundef float @_ZN4pbrt6detail8DispatchIRZNKS_4Film8DiagonalEvEUlT_E_fNS_7RGBFilmENS_11GBufferFilmENS_12SpectralFilmEEET0_OS3_PKvi(ptr noundef nonnull align 1 dereferenceable(1) %8, ptr noundef %9, i32 noundef %11)
  ret float %12
}

; Function Attrs: mustprogress nounwind uwtable
define linkonce_odr dso_local noundef nonnull align 4 dereferenceable(16) ptr @_ZN4pstd6vectorIN4pbrt7Bounds2IfEENS_3pmr21polymorphic_allocatorIS3_EEEixEm(ptr noundef nonnull align 8 dereferenceable(32) %0, i64 noundef %1) #6 comdat align 2 {
  %3 = alloca ptr, align 8
  %4 = alloca i64, align 8
  store ptr %0, ptr %3, align 8, !tbaa !274
  store i64 %1, ptr %4, align 8, !tbaa !165
  %5 = load ptr, ptr %3, align 8
  br label %6

6:                                                ; preds = %2
  br label %7

7:                                                ; preds = %6
  %8 = getelementptr inbounds nuw %"class.pstd::vector.62", ptr %5, i32 0, i32 1
  %9 = load ptr, ptr %8, align 8, !tbaa !276
  %10 = load i64, ptr %4, align 8, !tbaa !165
  %11 = getelementptr inbounds nuw %"class.pbrt::Bounds2", ptr %9, i64 %10
  ret ptr %11
}

; Function Attrs: inlinehint mustprogress uwtable
define linkonce_odr dso_local noundef float @_ZNK4pbrt4Film8DiagonalEv(ptr noundef nonnull align 8 dereferenceable(8) %0) #10 comdat align 2 {
  %2 = alloca ptr, align 8
  %3 = alloca %class.anon.92, align 1
  store ptr %0, ptr %2, align 8, !tbaa !100
  %4 = load ptr, ptr %2, align 8
  call void @llvm.lifetime.start.p0(i64 1, ptr %3) #15
  %5 = call noundef float @_ZNK4pbrt13TaggedPointerIJNS_7RGBFilmENS_11GBufferFilmENS_12SpectralFilmEEE8DispatchIRZNKS_4Film8DiagonalEvEUlT_E_EEDcOS7_(ptr noundef nonnull align 8 dereferenceable(8) %4, ptr noundef nonnull align 1 dereferenceable(1) %3)
  call void @llvm.lifetime.end.p0(i64 1, ptr %3) #15
  ret float %5
}

; Function Attrs: inlinehint mustprogress uwtable
define internal void @"_ZZN4pbrt15RealisticCameraC1ENS_20CameraBaseParametersERSt6vectorIfSaIfEEffNS_5ImageEN4pstd3pmr21polymorphic_allocatorISt4byteEEENK3$_0clEi"(ptr noundef nonnull align 8 dereferenceable(16) %0, i32 noundef %1) #11 align 2 {
  %3 = alloca ptr, align 8
  %4 = alloca i32, align 4
  %5 = alloca float, align 4
  %6 = alloca float, align 4
  %7 = alloca %"class.pbrt::Bounds2", align 4
  store ptr %0, ptr %3, align 8, !tbaa !57
  store i32 %1, ptr %4, align 4, !tbaa !48
  %8 = load ptr, ptr %3, align 8
  %9 = getelementptr inbounds nuw %class.anon.64, ptr %8, i32 0, i32 1
  %10 = load ptr, ptr %9, align 8, !tbaa !257
  call void @llvm.lifetime.start.p0(i64 4, ptr %5) #15
  %11 = load i32, ptr %4, align 4, !tbaa !48
  %12 = sitofp i32 %11 to float
  %13 = getelementptr inbounds nuw %class.anon.64, ptr %8, i32 0, i32 0
  %14 = load ptr, ptr %13, align 8, !tbaa !783
  %15 = load i32, ptr %14, align 4, !tbaa !48
  %16 = sitofp i32 %15 to float
  %17 = fdiv float %12, %16
  %18 = getelementptr inbounds nuw %"class.pbrt::CameraBase", ptr %10, i32 0, i32 3
  %19 = call noundef float @_ZNK4pbrt4Film8DiagonalEv(ptr noundef nonnull align 8 dereferenceable(8) %18)
  %20 = fmul float %17, %19
  %21 = fdiv float %20, 2.000000e+00
  store float %21, ptr %5, align 4, !tbaa !9
  call void @llvm.lifetime.start.p0(i64 4, ptr %6) #15
  %22 = load i32, ptr %4, align 4, !tbaa !48
  %23 = add nsw i32 %22, 1
  %24 = sitofp i32 %23 to float
  %25 = getelementptr inbounds nuw %class.anon.64, ptr %8, i32 0, i32 0
  %26 = load ptr, ptr %25, align 8, !tbaa !783
  %27 = load i32, ptr %26, align 4, !tbaa !48
  %28 = sitofp i32 %27 to float
  %29 = fdiv float %24, %28
  %30 = getelementptr inbounds nuw %"class.pbrt::CameraBase", ptr %10, i32 0, i32 3
  %31 = call noundef float @_ZNK4pbrt4Film8DiagonalEv(ptr noundef nonnull align 8 dereferenceable(8) %30)
  %32 = fmul float %29, %31
  %33 = fdiv float %32, 2.000000e+00
  store float %33, ptr %6, align 4, !tbaa !9
  call void @llvm.lifetime.start.p0(i64 16, ptr %7) #15
  %34 = load float, ptr %5, align 4, !tbaa !9
  %35 = load float, ptr %6, align 4, !tbaa !9
  %36 = call { <2 x float>, <2 x float> } @_ZNK4pbrt15RealisticCamera14BoundExitPupilEff(ptr noundef nonnull align 8 dereferenceable(1128) %10, float noundef %34, float noundef %35)
  %37 = getelementptr inbounds nuw { <2 x float>, <2 x float> }, ptr %7, i32 0, i32 0
  %38 = extractvalue { <2 x float>, <2 x float> } %36, 0
  store <2 x float> %38, ptr %37, align 4
  %39 = getelementptr inbounds nuw { <2 x float>, <2 x float> }, ptr %7, i32 0, i32 1
  %40 = extractvalue { <2 x float>, <2 x float> } %36, 1
  store <2 x float> %40, ptr %39, align 4
  %41 = getelementptr inbounds nuw %"class.pbrt::RealisticCamera", ptr %10, i32 0, i32 4
  %42 = load i32, ptr %4, align 4, !tbaa !48
  %43 = sext i32 %42 to i64
  %44 = call noundef nonnull align 4 dereferenceable(16) ptr @_ZN4pstd6vectorIN4pbrt7Bounds2IfEENS_3pmr21polymorphic_allocatorIS3_EEEixEm(ptr noundef nonnull align 8 dereferenceable(32) %41, i64 noundef %43)
  call void @llvm.memcpy.p0.p0.i64(ptr align 4 %44, ptr align 4 %7, i64 16, i1 false)
  call void @llvm.lifetime.end.p0(i64 16, ptr %7) #15
  call void @llvm.lifetime.end.p0(i64 4, ptr %6) #15
  call void @llvm.lifetime.end.p0(i64 4, ptr %5) #15
  ret void
}

; Function Attrs: mustprogress nounwind uwtable
define linkonce_odr dso_local noundef ptr @_ZNKSt9_Any_data9_M_accessEv(ptr noundef nonnull align 8 dereferenceable(16) %0) #6 comdat align 2 {
  %2 = alloca ptr, align 8
  store ptr %0, ptr %2, align 8, !tbaa !595
  %3 = load ptr, ptr %2, align 8
  %4 = getelementptr inbounds [16 x i8], ptr %3, i64 0, i64 0
  ret ptr %4
}

; Function Attrs: mustprogress uwtable
define internal void @"_ZSt13__invoke_implIvRZN4pbrt15RealisticCameraC1ENS0_20CameraBaseParametersERSt6vectorIfSaIfEEffNS0_5ImageEN4pstd3pmr21polymorphic_allocatorISt4byteEEE3$_0JlEET_St14__invoke_otherOT0_DpOT1_"(ptr noundef nonnull align 8 dereferenceable(16) %0, ptr noundef nonnull align 8 dereferenceable(8) %1) #1 {
  %3 = alloca ptr, align 8
  %4 = alloca ptr, align 8
  store ptr %0, ptr %3, align 8, !tbaa !57
  store ptr %1, ptr %4, align 8, !tbaa !317
  %5 = load ptr, ptr %3, align 8, !tbaa !57
  %6 = load ptr, ptr %4, align 8, !tbaa !317
  %7 = load i64, ptr %6, align 8, !tbaa !165
  %8 = trunc i64 %7 to i32
  call void @"_ZZN4pbrt15RealisticCameraC1ENS_20CameraBaseParametersERSt6vectorIfSaIfEEffNS_5ImageEN4pstd3pmr21polymorphic_allocatorISt4byteEEENK3$_0clEi"(ptr noundef nonnull align 8 dereferenceable(16) %5, i32 noundef %8)
  ret void
}

; Function Attrs: mustprogress nounwind uwtable
define internal noundef nonnull align 8 dereferenceable(16) ptr @"_ZNKSt9_Any_data9_M_accessIZN4pbrt15RealisticCameraC1ENS1_20CameraBaseParametersERSt6vectorIfSaIfEEffNS1_5ImageEN4pstd3pmr21polymorphic_allocatorISt4byteEEE3$_0EERKT_v"(ptr noundef nonnull align 8 dereferenceable(16) %0) #6 align 2 {
  %2 = alloca ptr, align 8
  store ptr %0, ptr %2, align 8, !tbaa !595
  %3 = load ptr, ptr %2, align 8
  %4 = call noundef ptr @_ZNKSt9_Any_data9_M_accessEv(ptr noundef nonnull align 8 dereferenceable(16) %3) #15
  ret ptr %4
}

; Function Attrs: mustprogress uwtable
define internal void @"_ZSt10__invoke_rIvRZN4pbrt15RealisticCameraC1ENS0_20CameraBaseParametersERSt6vectorIfSaIfEEffNS0_5ImageEN4pstd3pmr21polymorphic_allocatorISt4byteEEE3$_0JlEENSt9enable_ifIX16is_invocable_r_vIT_T0_DpT1_EESG_E4typeEOSH_DpOSI_"(ptr noundef nonnull align 8 dereferenceable(16) %0, ptr noundef nonnull align 8 dereferenceable(8) %1) #1 {
  %3 = alloca ptr, align 8
  %4 = alloca ptr, align 8
  store ptr %0, ptr %3, align 8, !tbaa !57
  store ptr %1, ptr %4, align 8, !tbaa !317
  %5 = load ptr, ptr %3, align 8, !tbaa !57
  %6 = load ptr, ptr %4, align 8, !tbaa !317
  call void @"_ZSt13__invoke_implIvRZN4pbrt15RealisticCameraC1ENS0_20CameraBaseParametersERSt6vectorIfSaIfEEffNS0_5ImageEN4pstd3pmr21polymorphic_allocatorISt4byteEEE3$_0JlEET_St14__invoke_otherOT0_DpOT1_"(ptr noundef nonnull align 8 dereferenceable(16) %5, ptr noundef nonnull align 8 dereferenceable(8) %6)
  ret void
}

; Function Attrs: mustprogress nounwind uwtable
define internal noundef ptr @"_ZNSt14_Function_base13_Base_managerIZN4pbrt15RealisticCameraC1ENS1_20CameraBaseParametersERSt6vectorIfSaIfEEffNS1_5ImageEN4pstd3pmr21polymorphic_allocatorISt4byteEEE3$_0E14_M_get_pointerERKSt9_Any_data"(ptr noundef nonnull align 8 dereferenceable(16) %0) #6 align 2 {
  %2 = alloca ptr, align 8
  %3 = alloca ptr, align 8
  store ptr %0, ptr %2, align 8, !tbaa !595
  call void @llvm.lifetime.start.p0(i64 8, ptr %3) #15
  %4 = load ptr, ptr %2, align 8, !tbaa !595
  %5 = call noundef nonnull align 8 dereferenceable(16) ptr @"_ZNKSt9_Any_data9_M_accessIZN4pbrt15RealisticCameraC1ENS1_20CameraBaseParametersERSt6vectorIfSaIfEEffNS1_5ImageEN4pstd3pmr21polymorphic_allocatorISt4byteEEE3$_0EERKT_v"(ptr noundef nonnull align 8 dereferenceable(16) %4) #15
  store ptr %5, ptr %3, align 8, !tbaa !57
  %6 = load ptr, ptr %3, align 8, !tbaa !57
  call void @llvm.lifetime.end.p0(i64 8, ptr %3) #15
  ret ptr %6
}

; Function Attrs: mustprogress uwtable
define internal void @"_ZNSt17_Function_handlerIFvlEZN4pbrt15RealisticCameraC1ENS1_20CameraBaseParametersERSt6vectorIfSaIfEEffNS1_5ImageEN4pstd3pmr21polymorphic_allocatorISt4byteEEE3$_0E9_M_invokeERKSt9_Any_dataOl"(ptr noundef nonnull align 8 dereferenceable(16) %0, ptr noundef nonnull align 8 dereferenceable(8) %1) #1 align 2 {
  %3 = alloca ptr, align 8
  %4 = alloca ptr, align 8
  store ptr %0, ptr %3, align 8, !tbaa !595
  store ptr %1, ptr %4, align 8, !tbaa !317
  %5 = load ptr, ptr %3, align 8, !tbaa !595
  %6 = call noundef ptr @"_ZNSt14_Function_base13_Base_managerIZN4pbrt15RealisticCameraC1ENS1_20CameraBaseParametersERSt6vectorIfSaIfEEffNS1_5ImageEN4pstd3pmr21polymorphic_allocatorISt4byteEEE3$_0E14_M_get_pointerERKSt9_Any_data"(ptr noundef nonnull align 8 dereferenceable(16) %5) #15
  %7 = load ptr, ptr %4, align 8, !tbaa !317
  call void @"_ZSt10__invoke_rIvRZN4pbrt15RealisticCameraC1ENS0_20CameraBaseParametersERSt6vectorIfSaIfEEffNS0_5ImageEN4pstd3pmr21polymorphic_allocatorISt4byteEEE3$_0JlEENSt9enable_ifIX16is_invocable_r_vIT_T0_DpT1_EESG_E4typeEOSH_DpOSI_"(ptr noundef nonnull align 8 dereferenceable(16) %6, ptr noundef nonnull align 8 dereferenceable(8) %7)
  ret void
}