; Function Attrs: mustprogress uwtable
define internal void @"_ZNSt17_Function_handlerIFvlEZN4pbrt15RealisticCameraC1ENS1_20CameraBaseParametersERSt6vectorIfSaIfEEffNS1_5ImageEN4pstd3pmr21polymorphic_allocatorISt4byteEEE3$_0E9_M_invokeERKSt9_Any_dataOl"(ptr noundef nonnull readonly align 8 captures(none) dereferenceable(16) %0, ptr noundef nonnull readonly align 8 captures(none) dereferenceable(8) %1) #1 align 2 {
  %.val = load ptr, ptr %0, align 8, !tbaa !1075
  %3 = getelementptr inbounds nuw i8, ptr %0, i64 8
  %.val2 = load ptr, ptr %3, align 8, !tbaa !1077
  %.val3 = load i64, ptr %1, align 8, !tbaa !90
  %.val.val = load i32, ptr %.val, align 4, !tbaa !125
  %4 = trunc i64 %.val3 to i32
  %5 = sitofp i32 %4 to float
  %6 = sitofp i32 %.val.val to float
  %7 = fdiv float %5, %6
  %8 = getelementptr inbounds nuw i8, ptr %.val2, i64 832
  %9 = load i64, ptr %8, align 8, !tbaa !96
  %10 = and i64 %9, 144115188075855871
  %11 = inttoptr i64 %10 to ptr
  %.0.in.i.i.i.i.i.i = getelementptr inbounds nuw i8, ptr %11, i64 32
  %.0.i.i.i.i.i.i = load float, ptr %.0.in.i.i.i.i.i.i, align 8, !tbaa !320
  %12 = fmul float %7, %.0.i.i.i.i.i.i
  %13 = fmul float %12, 5.000000e-01
  %14 = add nsw i32 %4, 1
  %15 = sitofp i32 %14 to float
  %16 = fdiv float %15, %6
  %17 = fmul float %.0.i.i.i.i.i.i, %16
  %18 = fmul float %17, 5.000000e-01
  %19 = tail call { <2 x float>, <2 x float> } @_ZNK4pbrt15RealisticCamera14BoundExitPupilEff(ptr noundef nonnull align 8 dereferenceable(1128) %.val2, float noundef %13, float noundef %18)
  %20 = extractvalue { <2 x float>, <2 x float> } %19, 0
  %21 = extractvalue { <2 x float>, <2 x float> } %19, 1
  %sext.i.i = shl i64 %.val3, 32
  %22 = getelementptr inbounds nuw i8, ptr %.val2, i64 1104
  %23 = load ptr, ptr %22, align 8, !tbaa !348
  %24 = ashr exact i64 %sext.i.i, 28
  %25 = getelementptr inbounds nuw i8, ptr %23, i64 %24
  store <2 x float> %20, ptr %25, align 4
  %.sroa.4.0..sroa_idx.i.i.i = getelementptr inbounds nuw i8, ptr %25, i64 8
  store <2 x float> %21, ptr %.sroa.4.0..sroa_idx.i.i.i, align 4
  ret void
}